; Function Attrs: mustprogress nofree nounwind willreturn memory(write, argmem: readwrite) uwtable
define void @_ZNK3g2o18RobustKernelCauchy9robustifyEdRN5Eigen6MatrixIdLi3ELi1ELi0ELi3ELi1EEE(ptr noundef nonnull readonly align 8 captures(none) dereferenceable(16) %0, double noundef %1, ptr noundef nonnull writeonly align 8 captures(none) dereferenceable(24) initializes((0, 24)) %2) unnamed_addr #6 align 2 personality ptr @__gxx_personality_v0 {
  %4 = getelementptr inbounds nuw i8, ptr %0, i64 8
  %5 = load double, ptr %4, align 8, !tbaa !21
  %6 = fmul double %5, %5
  %7 = fdiv double 1.000000e+00, %6
  %8 = tail call double @llvm.fmuladd.f64(double %7, double %1, double 1.000000e+00)
  %9 = tail call double @log(double noundef %8) #21, !tbaa !15
  %10 = fmul double %6, %9
  store double %10, ptr %2, align 8, !tbaa !24
  %11 = fdiv double 1.000000e+00, %8
  %12 = getelementptr inbounds nuw i8, ptr %2, i64 8
  store double %11, ptr %12, align 8, !tbaa !24
  %13 = fneg double %7
  %square = fmul double %11, %11
  %14 = fmul double %square, %13
  %15 = getelementptr inbounds nuw i8, ptr %2, i64 16
  store double %14, ptr %15, align 8, !tbaa !24
  ret void
}